target datalayout = "e-m:e-p270:32:32-p271:32:32-p272:64:64-i64:64-i128:128-f80:128-n8:16:32:64-S128"
target triple = "x86_64-pc-linux-gnu"

%"class.pxrInternal_v0_24__pxrReserved__::GfRange1d" = type { double, double }

; Function Attrs: mustprogress nounwind uwtable
define linkonce_odr noundef double @_ZN32pxrInternal_v0_24__pxrReserved__5GfSqrIdEEdRKT_(ptr noundef nonnull align 8 dereferenceable(8) %0) #2 comdat {
  %2 = alloca ptr, align 8
  store ptr %0, ptr %2, align 8
  %3 = load ptr, ptr %2, align 8
  %4 = load double, ptr %3, align 8
  %5 = load ptr, ptr %2, align 8
  %6 = load double, ptr %5, align 8
  %7 = fmul double %4, %6
  ret double %7
}

; Function Attrs: mustprogress uwtable
define noundef double @_ZNK32pxrInternal_v0_24__pxrReserved__9GfRange1d18GetDistanceSquaredEd(ptr noundef nonnull align 8 dereferenceable(16) %0, double noundef %1) #0 align 2 {
  %3 = alloca ptr, align 8
  %4 = alloca double, align 8
  %5 = alloca double, align 8
  %6 = alloca double, align 8
  %7 = alloca double, align 8
  store ptr %0, ptr %3, align 8
  store double %1, ptr %4, align 8
  %8 = load ptr, ptr %3, align 8
  store double 0.000000e+00, ptr %5, align 8
  %9 = load double, ptr %4, align 8
  %10 = getelementptr inbounds nuw %"class.pxrInternal_v0_24__pxrReserved__::GfRange1d", ptr %8, i32 0, i32 0
  %11 = load double, ptr %10, align 8
  %12 = fcmp olt double %9, %11
  br i1 %12, label %13, label %21

13:                                               ; preds = %2
  %14 = getelementptr inbounds nuw %"class.pxrInternal_v0_24__pxrReserved__::GfRange1d", ptr %8, i32 0, i32 0
  %15 = load double, ptr %14, align 8
  %16 = load double, ptr %4, align 8
  %17 = fsub double %15, %16
  store double %17, ptr %6, align 8
  %18 = call noundef double @_ZN32pxrInternal_v0_24__pxrReserved__5GfSqrIdEEdRKT_(ptr noundef nonnull align 8 dereferenceable(8) %6)
  %19 = load double, ptr %5, align 8
  %20 = fadd double %19, %18
  store double %20, ptr %5, align 8
  br label %35

21:                                               ; preds = %2
  %22 = load double, ptr %4, align 8
  %23 = getelementptr inbounds nuw %"class.pxrInternal_v0_24__pxrReserved__::GfRange1d", ptr %8, i32 0, i32 1
  %24 = load double, ptr %23, align 8
  %25 = fcmp ogt double %22, %24
  br i1 %25, label %26, label %34

26:                                               ; preds = %21
  %27 = load double, ptr %4, align 8
  %28 = getelementptr inbounds nuw %"class.pxrInternal_v0_24__pxrReserved__::GfRange1d", ptr %8, i32 0, i32 1
  %29 = load double, ptr %28, align 8
  %30 = fsub double %27, %29
  store double %30, ptr %7, align 8
  %31 = call noundef double @_ZN32pxrInternal_v0_24__pxrReserved__5GfSqrIdEEdRKT_(ptr noundef nonnull align 8 dereferenceable(8) %7)
  %32 = load double, ptr %5, align 8
  %33 = fadd double %32, %31
  store double %33, ptr %5, align 8
  br label %34

34:                                               ; preds = %26, %21
  br label %35

35:                                               ; preds = %34, %13
  %36 = load double, ptr %5, align 8
  ret double %36
}