; Function Attrs: mustprogress nofree norecurse nosync nounwind willreturn memory(argmem: read) uwtable
define noundef double @_ZNK32pxrInternal_v0_24__pxrReserved__9GfRange1d18GetDistanceSquaredEd(ptr nocapture noundef nonnull readonly align 8 dereferenceable(16) %0, double noundef %1) local_unnamed_addr #3 align 2 {
  %3 = load double, ptr %0, align 8
  %4 = fcmp olt double %1, %3
  br i1 %4, label %5, label %8

5:                                                ; preds = %2
  %6 = fsub double %3, %1
  %7 = fmul double %6, %6
  br label %15

8:                                                ; preds = %2
  %9 = getelementptr inbounds nuw i8, ptr %0, i64 8
  %10 = load double, ptr %9, align 8
  %11 = fcmp ogt double %1, %10
  br i1 %11, label %12, label %15

12:                                               ; preds = %8
  %13 = fsub double %1, %10
  %14 = fmul double %13, %13
  br label %15

15:                                               ; preds = %8, %12, %5
  %.0 = phi double [ %7, %5 ], [ %14, %12 ], [ 0.000000e+00, %8 ]
  ret double %.0
}